Certificate:
    Data:
        Version: 3 (0x2)
        Serial Number: 1 (0x1)
    Signature Algorithm: sha256WithRSAEncryption
        Issuer: C=CN, ST=SH, L=SH, O=eussi, OU=eussi, CN=*.eussi.top
        Validity
            Not Before: Jun 23 05:46:39 2019 GMT
            Not After : Jun 20 05:46:39 2029 GMT
        Subject: C=CN, ST=SH, O=eussi, OU=eussi, CN=eussi
        Subject Public Key Info:
            Public Key Algorithm: rsaEncryption
                Public-Key: (2048 bit)
                Modulus:
                    00:d9:6d:72:59:c2:e9:db:20:70:4e:8a:95:b3:63:
                    11:2d:47:7c:a8:2c:0c:07:ac:d1:aa:39:c8:84:69:
                    0a:e0:6e:1b:5b:3f:ec:2a:17:e7:95:e0:f2:65:d6:
                    33:9e:d4:e1:a4:da:80:ab:e5:5d:95:12:7f:57:3f:
                    d4:e6:a9:57:4b:bd:67:23:c8:2a:bf:d0:18:a8:44:
                    68:27:b0:81:51:c8:e6:13:0b:af:f8:b3:af:1f:67:
                    11:51:2f:bc:1e:54:2d:e3:fc:02:2a:fa:a3:21:5e:
                    ac:78:68:e8:74:bd:36:a3:6a:b5:ad:04:59:a2:d0:
                    6f:ec:75:a8:1d:ed:8c:a2:55:67:df:2a:58:2d:5e:
                    8e:2c:7b:cb:fd:cf:f1:93:2b:1d:0b:e8:83:72:25:
                    4d:c3:d3:83:d6:25:93:d4:cd:33:42:c1:44:d3:cc:
                    26:d0:a9:66:55:d4:02:c9:1c:cc:96:da:b2:13:f9:
                    90:6b:1f:ca:fc:f0:fc:00:7e:d8:76:d4:0c:04:11:
                    38:21:54:3f:ea:ea:16:a4:53:61:7c:9b:d5:10:0b:
                    38:de:80:9d:8a:06:0f:a4:be:3d:c7:3c:0d:19:fe:
                    70:71:73:9f:70:35:e5:c3:e0:10:92:7f:6f:7a:8b:
                    49:d3:69:95:01:0f:56:30:70:7d:f6:3c:05:ca:c7:
                    01:f9
                Exponent: 65537 (0x10001)
        X509v3 extensions:
            X509v3 Basic Constraints: 
                CA:FALSE
            Netscape Comment: 
                OpenSSL Generated Certificate
            X509v3 Subject Key Identifier: 
                E2:DA:CC:8C:DA:08:15:11:BB:96:48:7F:5D:90:E5:30:D2:F4:C1:E6
            X509v3 Authority Key Identifier: 
                DirName:/C=CN/ST=SH/L=SH/O=eussi/OU=eussi/CN=*.eussi.top
                serial:89:58:82:44:05:22:D5:AF

    Signature Algorithm: sha256WithRSAEncryption
         0e:d4:9e:e8:48:ce:e3:05:e2:49:3b:e2:ec:57:24:5d:a4:84:
         fc:2e:6c:37:63:e8:fd:70:7b:62:85:37:f5:f6:2d:bf:71:39:
         8d:a4:b8:1e:7c:59:d1:bf:60:88:2d:eb:a2:43:98:20:ef:51:
         44:39:56:38:01:e4:e5:85:3a:3d:be:4e:9b:f7:ae:9f:04:a2:
         78:90:5c:d9:77:28:27:60:87:a6:22:88:e7:5f:8d:61:f3:91:
         aa:3c:e3:05:e1:62:93:7f:4f:3f:2e:24:78:ce:6e:1e:07:73:
         bd:0b:62:96:1d:c8:15:a1:3a:f3:b6:d0:7d:c4:47:29:9d:7f:
         13:e5:c9:62:d1:1f:d5:92:c4:78:8a:5b:16:f1:1a:81:f1:89:
         cf:a7:cd:63:54:60:5f:af:1c:c5:25:5e:24:f2:67:5c:15:8d:
         8b:8f:ee:2f:49:6c:f0:80:28:14:93:36:00:7b:b2:d9:96:36:
         99:9d:6d:64:61:3a:4f:dc:b7:e8:ba:a8:95:41:05:ea:a6:fd:
         43:10:ca:35:9f:b5:3a:b6:59:49:41:b0:f8:cc:7b:c7:a2:f1:
         32:8f:ad:fa:ab:04:db:e3:73:28:cc:4e:ea:94:a2:16:8b:2a:
         dc:7e:8c:e7:8e:2d:5f:05:ee:13:56:b2:6e:0c:b5:aa:5a:7d:
         90:26:d0:3d
-----BEGIN CERTIFICATE-----
MIID9zCCAt+gAwIBAgIBATANBgkqhkiG9w0BAQsFADBdMQswCQYDVQQGEwJDTjEL
MAkGA1UECAwCU0gxCzAJBgNVBAcMAlNIMQ4wDAYDVQQKDAVldXNzaTEOMAwGA1UE
CwwFZXVzc2kxFDASBgNVBAMMCyouZXVzc2kudG9wMB4XDTE5MDYyMzA1NDYzOVoX
DTI5MDYyMDA1NDYzOVowSjELMAkGA1UEBhMCQ04xCzAJBgNVBAgMAlNIMQ4wDAYD
VQQKDAVldXNzaTEOMAwGA1UECwwFZXVzc2kxDjAMBgNVBAMMBWV1c3NpMIIBIjAN
BgkqhkiG9w0BAQEFAAOCAQ8AMIIBCgKCAQEA2W1yWcLp2yBwToqVs2MRLUd8qCwM
B6zRqjnIhGkK4G4bWz/sKhfnleDyZdYzntThpNqAq+VdlRJ/Vz/U5qlXS71nI8gq
v9AYqERoJ7CBUcjmEwuv+LOvH2cRUS+8HlQt4/wCKvqjIV6seGjodL02o2q1rQRZ
otBv7HWoHe2MolVn3ypYLV6OLHvL/c/xkysdC+iDciVNw9OD1iWT1M0zQsFE08wm
0KlmVdQCyRzMltqyE/mQax/K/PD8AH7YdtQMBBE4IVQ/6uoWpFNhfJvVEAs43oCd
igYPpL49xzwNGf5wcXOfcDXlw+AQkn9veotJ02mVAQ9WMHB99jwFyscB+QIDAQAB
o4HUMIHRMAkGA1UdEwQCMAAwLAYJYIZIAYb4QgENBB8WHU9wZW5TU0wgR2VuZXJh
dGVkIENlcnRpZmljYXRlMB0GA1UdDgQWBBTi2syM2ggVEbuWSH9dkOUw0vTB5jB3
BgNVHSMEcDBuoWGkXzBdMQswCQYDVQQGEwJDTjELMAkGA1UECAwCU0gxCzAJBgNV
BAcMAlNIMQ4wDAYDVQQKDAVldXNzaTEOMAwGA1UECwwFZXVzc2kxFDASBgNVBAMM
CyouZXVzc2kudG9wggkAiViCRAUi1a8wDQYJKoZIhvcNAQELBQADggEBAA7UnuhI
zuMF4kk74uxXJF2khPwubDdj6P1we2KFN/X2Lb9xOY2kuB58WdG/YIgt66JDmCDv
UUQ5VjgB5OWFOj2+Tpv3rp8EoniQXNl3KCdgh6YiiOdfjWHzkao84wXhYpN/Tz8u
JHjObh4Hc70LYpYdyBWhOvO20H3ERymdfxPlyWLRH9WSxHiKWxbxGoHxic+nzWNU
YF+vHMUlXiTyZ1wVjYuP7i9JbPCAKBSTNgB7stmWNpmdbWRhOk/ct+i6qJVBBeqm
/UMQyjWftTq2WUlBsPjMe8ei8TKPrfqrBNvjcyjMTuqUohaLKtx+jOeOLV8F7hNW
sm4MtapafZAm0D0=
-----END CERTIFICATE-----
